target datalayout = "e-m:e-p270:32:32-p271:32:32-p272:64:64-i64:64-i128:128-f80:128-n8:16:32:64-S128"
target triple = "x86_64-pc-linux-gnu"

%struct.Sbd_Par_t_ = type { i32, i32, i32, i32, i32, i32, i32, i32, i32, i32, i32, i32, i32, i32, i32, i32, i32 }
%struct.Vec_Int_t_ = type { i32, i32, ptr }
%struct.Sbd_Man_t_ = type { ptr, ptr, ptr, ptr, ptr, ptr, ptr, [4 x ptr], ptr, ptr, ptr, [6 x i32], i32, i32, i64, i64, i64, i64, i64, i64, i64, i64, i64, ptr, ptr, i32, i32, ptr, ptr, ptr, ptr, ptr, ptr, ptr, ptr, [2 x ptr], ptr, ptr }
%struct.Sbd_Str_t_ = type { i32, i32, [10 x i32], i64 }

; Function Attrs: inlinehint nounwind uwtable
define internal i32 @Vec_IntSize(ptr noundef %0) #3 {
  %2 = alloca ptr, align 8
  store ptr %0, ptr %2, align 8, !tbaa !52
  %3 = load ptr, ptr %2, align 8, !tbaa !52
  %4 = getelementptr inbounds nuw %struct.Vec_Int_t_, ptr %3, i32 0, i32 1
  %5 = load i32, ptr %4, align 4, !tbaa !65
  ret i32 %5
}

; Function Attrs: inlinehint nounwind uwtable
define internal void @Vec_IntWriteEntry(ptr noundef %0, i32 noundef %1, i32 noundef %2) #3 {
  %4 = alloca ptr, align 8
  %5 = alloca i32, align 4
  %6 = alloca i32, align 4
  store ptr %0, ptr %4, align 8, !tbaa !52
  store i32 %1, ptr %5, align 4, !tbaa !29
  store i32 %2, ptr %6, align 4, !tbaa !29
  %7 = load i32, ptr %6, align 4, !tbaa !29
  %8 = load ptr, ptr %4, align 8, !tbaa !52
  %9 = getelementptr inbounds nuw %struct.Vec_Int_t_, ptr %8, i32 0, i32 2
  %10 = load ptr, ptr %9, align 8, !tbaa !70
  %11 = load i32, ptr %5, align 4, !tbaa !29
  %12 = sext i32 %11 to i64
  %13 = getelementptr inbounds i32, ptr %10, i64 %12
  store i32 %7, ptr %13, align 4, !tbaa !29
  ret void
}

; Function Attrs: nounwind uwtable
define void @Sbd_NtkPerformOne(ptr noundef %0, i32 noundef %1) #0 {
  %3 = alloca ptr, align 8
  %4 = alloca i32, align 4
  %5 = alloca [10 x %struct.Sbd_Str_t_], align 16
  %6 = alloca i64, align 8
  %7 = alloca i32, align 4
  %8 = alloca i32, align 4
  %9 = alloca i32, align 4
  %10 = alloca i32, align 4
  store ptr %0, ptr %3, align 8, !tbaa !73
  store i32 %1, ptr %4, align 4, !tbaa !29
  call void @llvm.lifetime.start.p0(i64 560, ptr %5) #13
  call void @llvm.lifetime.start.p0(i64 8, ptr %6) #13
  store i64 0, ptr %6, align 8, !tbaa !101
  call void @llvm.lifetime.start.p0(i64 4, ptr %7) #13
  call void @llvm.lifetime.start.p0(i64 4, ptr %8) #13
  store i32 0, ptr %8, align 4, !tbaa !29
  %11 = load ptr, ptr %3, align 8, !tbaa !73
  %12 = getelementptr inbounds nuw %struct.Sbd_Man_t_, ptr %11, i32 0, i32 23
  %13 = load ptr, ptr %12, align 8, !tbaa !104
  %14 = icmp ne ptr %13, null
  br i1 %14, label %21, label %15

15:                                               ; preds = %2
  %16 = load ptr, ptr %3, align 8, !tbaa !73
  %17 = load i32, ptr %4, align 4, !tbaa !29
  %18 = call i32 @Sbd_ManMergeCuts(ptr noundef %16, i32 noundef %17)
  %19 = icmp ne i32 %18, 0
  br i1 %19, label %20, label %21

20:                                               ; preds = %15
  store i32 1, ptr %9, align 4
  br label %134

21:                                               ; preds = %15, %2
  %22 = load ptr, ptr %3, align 8, !tbaa !73
  %23 = load i32, ptr %4, align 4, !tbaa !29
  %24 = call i32 @Sbd_ManWindow(ptr noundef %22, i32 noundef %23)
  %25 = icmp ne i32 %24, 0
  br i1 %25, label %27, label %26

26:                                               ; preds = %21
  store i32 1, ptr %9, align 4
  br label %134

27:                                               ; preds = %21
  %28 = load ptr, ptr %3, align 8, !tbaa !73
  %29 = getelementptr inbounds nuw %struct.Sbd_Man_t_, ptr %28, i32 0, i32 12
  %30 = load i32, ptr %29, align 8, !tbaa !309
  %31 = add nsw i32 %30, 1
  store i32 %31, ptr %29, align 8, !tbaa !309
  %32 = load ptr, ptr %3, align 8, !tbaa !73
  %33 = getelementptr inbounds nuw %struct.Sbd_Man_t_, ptr %32, i32 0, i32 13
  %34 = load i32, ptr %33, align 4, !tbaa !310
  %35 = add nsw i32 %34, 1
  store i32 %35, ptr %33, align 4, !tbaa !310
  %36 = load ptr, ptr %3, align 8, !tbaa !73
  %37 = load i32, ptr %4, align 4, !tbaa !29
  %38 = call i32 @Sbd_ManCheckConst(ptr noundef %36, i32 noundef %37)
  store i32 %38, ptr %7, align 4, !tbaa !29
  %39 = load i32, ptr %7, align 4, !tbaa !29
  %40 = icmp sge i32 %39, 0
  br i1 %40, label %41, label %47

41:                                               ; preds = %27
  %42 = load ptr, ptr %3, align 8, !tbaa !73
  %43 = getelementptr inbounds nuw %struct.Sbd_Man_t_, ptr %42, i32 0, i32 6
  %44 = load ptr, ptr %43, align 8, !tbaa !85
  %45 = load i32, ptr %4, align 4, !tbaa !29
  %46 = load i32, ptr %7, align 4, !tbaa !29
  call void @Vec_IntWriteEntry(ptr noundef %44, i32 noundef %45, i32 noundef %46)
  br label %133

47:                                               ; preds = %27
  %48 = load ptr, ptr %3, align 8, !tbaa !73
  %49 = getelementptr inbounds nuw %struct.Sbd_Man_t_, ptr %48, i32 0, i32 0
  %50 = load ptr, ptr %49, align 8, !tbaa !80
  %51 = getelementptr inbounds nuw %struct.Sbd_Par_t_, ptr %50, i32 0, i32 11
  %52 = load i32, ptr %51, align 4, !tbaa !21
  %53 = icmp ne i32 %52, 0
  br i1 %53, label %54, label %99

54:                                               ; preds = %47
  %55 = load ptr, ptr %3, align 8, !tbaa !73
  %56 = getelementptr inbounds nuw %struct.Sbd_Man_t_, ptr %55, i32 0, i32 0
  %57 = load ptr, ptr %56, align 8, !tbaa !80
  %58 = getelementptr inbounds nuw %struct.Sbd_Par_t_, ptr %57, i32 0, i32 1
  %59 = load i32, ptr %58, align 4, !tbaa !11
  %60 = icmp sge i32 %59, 1
  br i1 %60, label %61, label %99

61:                                               ; preds = %54
  %62 = load ptr, ptr %3, align 8, !tbaa !73
  %63 = load i32, ptr %4, align 4, !tbaa !29
  %64 = call i32 @Sbd_ManExplore2(ptr noundef %62, i32 noundef %63, ptr noundef %6)
  %65 = icmp ne i32 %64, 0
  br i1 %65, label %66, label %99

66:                                               ; preds = %61
  call void @llvm.lifetime.start.p0(i64 4, ptr %10) #13
  %67 = getelementptr inbounds [10 x %struct.Sbd_Str_t_], ptr %5, i64 0, i64 0
  %68 = getelementptr inbounds nuw %struct.Sbd_Str_t_, ptr %67, i32 0, i32 0
  store i32 1, ptr %68, align 16, !tbaa !231
  %69 = load ptr, ptr %3, align 8, !tbaa !73
  %70 = getelementptr inbounds nuw %struct.Sbd_Man_t_, ptr %69, i32 0, i32 31
  %71 = load ptr, ptr %70, align 8, !tbaa !94
  %72 = call i32 @Vec_IntSize(ptr noundef %71)
  %73 = getelementptr inbounds [10 x %struct.Sbd_Str_t_], ptr %5, i64 0, i64 0
  %74 = getelementptr inbounds nuw %struct.Sbd_Str_t_, ptr %73, i32 0, i32 1
  store i32 %72, ptr %74, align 4, !tbaa !233
  store i32 0, ptr %10, align 4, !tbaa !29
  br label %75

75:                                               ; preds = %88, %66
  %76 = load i32, ptr %10, align 4, !tbaa !29
  %77 = getelementptr inbounds [10 x %struct.Sbd_Str_t_], ptr %5, i64 0, i64 0
  %78 = getelementptr inbounds nuw %struct.Sbd_Str_t_, ptr %77, i32 0, i32 1
  %79 = load i32, ptr %78, align 4, !tbaa !233
  %80 = icmp slt i32 %76, %79
  br i1 %80, label %81, label %91

81:                                               ; preds = %75
  %82 = load i32, ptr %10, align 4, !tbaa !29
  %83 = getelementptr inbounds [10 x %struct.Sbd_Str_t_], ptr %5, i64 0, i64 0
  %84 = getelementptr inbounds nuw %struct.Sbd_Str_t_, ptr %83, i32 0, i32 2
  %85 = load i32, ptr %10, align 4, !tbaa !29
  %86 = sext i32 %85 to i64
  %87 = getelementptr inbounds [10 x i32], ptr %84, i64 0, i64 %86
  store i32 %82, ptr %87, align 4, !tbaa !29
  br label %88

88:                                               ; preds = %81
  %89 = load i32, ptr %10, align 4, !tbaa !29
  %90 = add nsw i32 %89, 1
  store i32 %90, ptr %10, align 4, !tbaa !29
  br label %75, !llvm.loop !311

91:                                               ; preds = %75
  %92 = load i64, ptr %6, align 8, !tbaa !101
  %93 = getelementptr inbounds [10 x %struct.Sbd_Str_t_], ptr %5, i64 0, i64 0
  %94 = getelementptr inbounds nuw %struct.Sbd_Str_t_, ptr %93, i32 0, i32 3
  store i64 %92, ptr %94, align 16, !tbaa !235
  %95 = load ptr, ptr %3, align 8, !tbaa !73
  %96 = load i32, ptr %4, align 4, !tbaa !29
  %97 = getelementptr inbounds [10 x %struct.Sbd_Str_t_], ptr %5, i64 0, i64 0
  %98 = call i32 @Sbd_ManImplement2(ptr noundef %95, i32 noundef %96, i32 noundef 1, ptr noundef %97)
  call void @llvm.lifetime.end.p0(i64 4, ptr %10) #13
  br label %132

99:                                               ; preds = %61, %54, %47
  %100 = load ptr, ptr %3, align 8, !tbaa !73
  %101 = getelementptr inbounds nuw %struct.Sbd_Man_t_, ptr %100, i32 0, i32 0
  %102 = load ptr, ptr %101, align 8, !tbaa !80
  %103 = getelementptr inbounds nuw %struct.Sbd_Par_t_, ptr %102, i32 0, i32 1
  %104 = load i32, ptr %103, align 4, !tbaa !11
  %105 = icmp sge i32 %104, 2
  br i1 %105, label %106, label %126

106:                                              ; preds = %99
  %107 = load ptr, ptr %3, align 8, !tbaa !73
  %108 = load i32, ptr %4, align 4, !tbaa !29
  %109 = getelementptr inbounds [10 x %struct.Sbd_Str_t_], ptr %5, i64 0, i64 0
  %110 = call i32 @Sbd_ManExplore3(ptr noundef %107, i32 noundef %108, ptr noundef %8, ptr noundef %109)
  %111 = icmp ne i32 %110, 0
  br i1 %111, label %112, label %126

112:                                              ; preds = %106
  %113 = load ptr, ptr %3, align 8, !tbaa !73
  %114 = load i32, ptr %4, align 4, !tbaa !29
  %115 = load i32, ptr %8, align 4, !tbaa !29
  %116 = getelementptr inbounds [10 x %struct.Sbd_Str_t_], ptr %5, i64 0, i64 0
  %117 = call i32 @Sbd_ManImplement2(ptr noundef %113, i32 noundef %114, i32 noundef %115, ptr noundef %116)
  %118 = load ptr, ptr %3, align 8, !tbaa !73
  %119 = getelementptr inbounds nuw %struct.Sbd_Man_t_, ptr %118, i32 0, i32 0
  %120 = load ptr, ptr %119, align 8, !tbaa !80
  %121 = getelementptr inbounds nuw %struct.Sbd_Par_t_, ptr %120, i32 0, i32 15
  %122 = load i32, ptr %121, align 4, !tbaa !25
  %123 = icmp ne i32 %122, 0
  br i1 %123, label %125, label %124

124:                                              ; preds = %112
  store i32 1, ptr %9, align 4
  br label %134

125:                                              ; preds = %112
  br label %131

126:                                              ; preds = %106, %99
  %127 = load ptr, ptr %3, align 8, !tbaa !73
  %128 = getelementptr inbounds nuw %struct.Sbd_Man_t_, ptr %127, i32 0, i32 13
  %129 = load i32, ptr %128, align 4, !tbaa !310
  %130 = add nsw i32 %129, -1
  store i32 %130, ptr %128, align 4, !tbaa !310
  br label %131

131:                                              ; preds = %126, %125
  br label %132

132:                                              ; preds = %131, %91
  br label %133

133:                                              ; preds = %132, %41
  store i32 0, ptr %9, align 4
  br label %134

134:                                              ; preds = %133, %124, %26, %20
  call void @llvm.lifetime.end.p0(i64 4, ptr %8) #13
  call void @llvm.lifetime.end.p0(i64 4, ptr %7) #13
  call void @llvm.lifetime.end.p0(i64 8, ptr %6) #13
  call void @llvm.lifetime.end.p0(i64 560, ptr %5) #13
  %135 = load i32, ptr %9, align 4
  switch i32 %135, label %137 [
    i32 0, label %136
    i32 1, label %136
  ]

136:                                              ; preds = %134, %134
  ret void

137:                                              ; preds = %134
  unreachable
}