; Function Attrs: nounwind uwtable
define void @Sbd_NtkPerformOne(ptr noundef %0, i32 noundef %1) local_unnamed_addr #2 {
  %3 = alloca [10 x %struct.Sbd_Str_t_], align 16
  %4 = alloca i64, align 8
  %5 = alloca i32, align 4
  call void @llvm.lifetime.start.p0(i64 560, ptr nonnull %3) #32
  call void @llvm.lifetime.start.p0(i64 8, ptr nonnull %4) #32
  store i64 0, ptr %4, align 8, !tbaa !100
  call void @llvm.lifetime.start.p0(i64 4, ptr nonnull %5) #32
  store i32 0, ptr %5, align 4, !tbaa !50
  %6 = getelementptr inbounds nuw i8, ptr %0, i64 216
  %7 = load ptr, ptr %6, align 8, !tbaa !105
  %.not = icmp eq ptr %7, null
  br i1 %.not, label %8, label %10

8:                                                ; preds = %2
  %9 = tail call i32 @Sbd_ManMergeCuts(ptr noundef nonnull %0, i32 noundef %1)
  %.not31 = icmp eq i32 %9, 0
  br i1 %.not31, label %10, label %63

10:                                               ; preds = %8, %2
  %11 = tail call i32 @Sbd_ManWindow(ptr noundef nonnull %0, i32 noundef %1)
  %.not32 = icmp eq i32 %11, 0
  br i1 %.not32, label %63, label %12

12:                                               ; preds = %10
  %13 = getelementptr inbounds nuw i8, ptr %0, i64 136
  %14 = load i32, ptr %13, align 8, !tbaa !293
  %15 = add nsw i32 %14, 1
  store i32 %15, ptr %13, align 8, !tbaa !293
  %16 = getelementptr inbounds nuw i8, ptr %0, i64 140
  %17 = load i32, ptr %16, align 4, !tbaa !294
  %18 = add nsw i32 %17, 1
  store i32 %18, ptr %16, align 4, !tbaa !294
  %19 = tail call i32 @Sbd_ManCheckConst(ptr noundef nonnull %0, i32 noundef %1)
  %20 = icmp sgt i32 %19, -1
  br i1 %20, label %21, label %27

21:                                               ; preds = %12
  %22 = getelementptr inbounds nuw i8, ptr %0, i64 48
  %23 = load ptr, ptr %22, align 8, !tbaa !79
  %24 = getelementptr i8, ptr %23, i64 8
  %.val37 = load ptr, ptr %24, align 8, !tbaa !49
  %25 = sext i32 %1 to i64
  %26 = getelementptr inbounds i32, ptr %.val37, i64 %25
  store i32 %19, ptr %26, align 4, !tbaa !50
  br label %63

27:                                               ; preds = %12
  %28 = load ptr, ptr %0, align 8, !tbaa !74
  %29 = getelementptr inbounds nuw i8, ptr %28, i64 44
  %30 = load i32, ptr %29, align 4, !tbaa !295
  %.not33 = icmp eq i32 %30, 0
  br i1 %.not33, label %50, label %31

31:                                               ; preds = %27
  %32 = getelementptr inbounds nuw i8, ptr %28, i64 4
  %33 = load i32, ptr %32, align 4, !tbaa !8
  %34 = icmp sgt i32 %33, 0
  br i1 %34, label %35, label %50

35:                                               ; preds = %31
  %36 = call i32 @Sbd_ManExplore2(ptr noundef nonnull %0, i32 noundef %1, ptr noundef nonnull %4)
  %.not34 = icmp eq i32 %36, 0
  br i1 %.not34, label %._crit_edge40, label %37

._crit_edge40:                                    ; preds = %35
  %.pre = load ptr, ptr %0, align 8, !tbaa !74
  br label %50

37:                                               ; preds = %35
  store i32 1, ptr %3, align 16, !tbaa !228
  %38 = getelementptr inbounds nuw i8, ptr %0, i64 272
  %39 = load ptr, ptr %38, align 8, !tbaa !93
  %40 = getelementptr i8, ptr %39, i64 4
  %.val = load i32, ptr %40, align 4, !tbaa !48
  %41 = getelementptr inbounds nuw i8, ptr %3, i64 4
  store i32 %.val, ptr %41, align 4, !tbaa !230
  %42 = icmp sgt i32 %.val, 0
  br i1 %42, label %.lr.ph, label %._crit_edge

.lr.ph:                                           ; preds = %37
  %43 = getelementptr inbounds nuw i8, ptr %3, i64 8
  %wide.trip.count = zext nneg i32 %.val to i64
  br label %44

44:                                               ; preds = %.lr.ph, %44
  %indvars.iv = phi i64 [ 0, %.lr.ph ], [ %indvars.iv.next, %44 ]
  %45 = getelementptr inbounds nuw [10 x i32], ptr %43, i64 0, i64 %indvars.iv
  %46 = trunc nuw nsw i64 %indvars.iv to i32
  store i32 %46, ptr %45, align 4, !tbaa !50
  %indvars.iv.next = add nuw nsw i64 %indvars.iv, 1
  %exitcond.not = icmp eq i64 %indvars.iv.next, %wide.trip.count
  br i1 %exitcond.not, label %._crit_edge, label %44, !llvm.loop !296

._crit_edge:                                      ; preds = %44, %37
  %47 = load i64, ptr %4, align 8, !tbaa !100
  %48 = getelementptr inbounds nuw i8, ptr %3, i64 48
  store i64 %47, ptr %48, align 16, !tbaa !232
  %49 = call i32 @Sbd_ManImplement2(ptr noundef nonnull %0, i32 noundef %1, i32 noundef 1, ptr noundef nonnull %3)
  br label %63

50:                                               ; preds = %._crit_edge40, %31, %27
  %51 = phi ptr [ %.pre, %._crit_edge40 ], [ %28, %31 ], [ %28, %27 ]
  %52 = getelementptr inbounds nuw i8, ptr %51, i64 4
  %53 = load i32, ptr %52, align 4, !tbaa !8
  %54 = icmp sgt i32 %53, 1
  br i1 %54, label %55, label %60

55:                                               ; preds = %50
  %56 = call i32 @Sbd_ManExplore3(ptr noundef nonnull %0, i32 noundef %1, ptr noundef nonnull %5, ptr noundef nonnull %3)
  %.not35 = icmp eq i32 %56, 0
  br i1 %.not35, label %60, label %57

57:                                               ; preds = %55
  %58 = load i32, ptr %5, align 4, !tbaa !50
  %59 = call i32 @Sbd_ManImplement2(ptr noundef nonnull %0, i32 noundef %1, i32 noundef %58, ptr noundef nonnull %3)
  br label %63

60:                                               ; preds = %55, %50
  %61 = load i32, ptr %16, align 4, !tbaa !294
  %62 = add nsw i32 %61, -1
  store i32 %62, ptr %16, align 4, !tbaa !294
  br label %63

63:                                               ; preds = %57, %21, %60, %._crit_edge, %10, %8
  call void @llvm.lifetime.end.p0(i64 4, ptr nonnull %5) #32
  call void @llvm.lifetime.end.p0(i64 8, ptr nonnull %4) #32
  call void @llvm.lifetime.end.p0(i64 560, ptr nonnull %3) #32
  ret void
}